; Function Attrs: nounwind uwtable
define ptr @l_Lean_PrettyPrinter_Delaborator_topDownAnalyze(ptr noundef %0, ptr noundef %1, ptr noundef %2, ptr noundef %3, ptr noundef %4, ptr noundef %5) local_unnamed_addr #1 {
  %7 = tail call ptr @lean_st_ref_get(ptr noundef %2, ptr noundef %5) #7
  %8 = getelementptr inbounds nuw i8, ptr %7, i64 8
  %9 = load ptr, ptr %8, align 8, !tbaa !11
  %10 = ptrtoint ptr %9 to i64
  %11 = and i64 %10, 1
  %.not = icmp eq i64 %11, 0
  br i1 %.not, label %12, label %lean_inc.exit27

12:                                               ; preds = %6
  %.val.i = load i32, ptr %9, align 4, !tbaa !8
  %13 = icmp sgt i32 %.val.i, 0
  br i1 %13, label %14, label %16, !prof !13

14:                                               ; preds = %12
  %15 = add nuw i32 %.val.i, 1
  store i32 %15, ptr %9, align 4, !tbaa !8
  br label %lean_inc.exit27

16:                                               ; preds = %12
  %.not.i28 = icmp eq i32 %.val.i, 0
  br i1 %.not.i28, label %lean_inc.exit27, label %17

17:                                               ; preds = %16
  tail call void @lean_inc_ref_cold(ptr noundef nonnull %9) #7
  br label %lean_inc.exit27

lean_inc.exit27:                                  ; preds = %17, %16, %14, %6
  %18 = getelementptr inbounds nuw i8, ptr %7, i64 16
  %19 = load ptr, ptr %18, align 8, !tbaa !11
  %20 = ptrtoint ptr %19 to i64
  %21 = and i64 %20, 1
  %.not36 = icmp eq i64 %21, 0
  br i1 %.not36, label %22, label %lean_inc.exit26

22:                                               ; preds = %lean_inc.exit27
  %.val.i29 = load i32, ptr %19, align 4, !tbaa !8
  %23 = icmp sgt i32 %.val.i29, 0
  br i1 %23, label %24, label %26, !prof !13

24:                                               ; preds = %22
  %25 = add nuw i32 %.val.i29, 1
  store i32 %25, ptr %19, align 4, !tbaa !8
  br label %lean_inc.exit26

26:                                               ; preds = %22
  %.not.i30 = icmp eq i32 %.val.i29, 0
  br i1 %.not.i30, label %lean_inc.exit26, label %27

27:                                               ; preds = %26
  tail call void @lean_inc_ref_cold(ptr noundef nonnull %19) #7
  br label %lean_inc.exit26

lean_inc.exit26:                                  ; preds = %27, %26, %24, %lean_inc.exit27
  %28 = ptrtoint ptr %7 to i64
  %29 = and i64 %28, 1
  %.not37 = icmp eq i64 %29, 0
  br i1 %.not37, label %30, label %lean_dec.exit

30:                                               ; preds = %lean_inc.exit26
  %31 = load i32, ptr %7, align 4, !tbaa !8
  %32 = icmp sgt i32 %31, 1
  br i1 %32, label %33, label %35, !prof !13

33:                                               ; preds = %30
  %34 = add nsw i32 %31, -1
  store i32 %34, ptr %7, align 4, !tbaa !8
  br label %lean_dec.exit

35:                                               ; preds = %30
  %.not.i = icmp eq i32 %31, 0
  br i1 %.not.i, label %lean_dec.exit, label %36

36:                                               ; preds = %35
  tail call void @lean_dec_ref_cold(ptr noundef nonnull %7) #7
  br label %lean_dec.exit

lean_dec.exit:                                    ; preds = %36, %35, %33, %lean_inc.exit26
  %37 = ptrtoint ptr %0 to i64
  %38 = and i64 %37, 1
  %.not38 = icmp eq i64 %38, 0
  br i1 %.not38, label %39, label %lean_inc.exit

39:                                               ; preds = %lean_dec.exit
  %.val.i32 = load i32, ptr %0, align 4, !tbaa !8
  %40 = icmp sgt i32 %.val.i32, 0
  br i1 %40, label %41, label %43, !prof !13

41:                                               ; preds = %39
  %42 = add nuw i32 %.val.i32, 1
  store i32 %42, ptr %0, align 4, !tbaa !8
  br label %lean_inc.exit

43:                                               ; preds = %39
  %.not.i33 = icmp eq i32 %.val.i32, 0
  br i1 %.not.i33, label %lean_inc.exit, label %44

44:                                               ; preds = %43
  tail call void @lean_inc_ref_cold(ptr noundef nonnull %0) #7
  br label %lean_inc.exit

lean_inc.exit:                                    ; preds = %44, %43, %41, %lean_dec.exit
  tail call void @lean_inc_heartbeat() #7
  %45 = tail call noalias ptr @mi_malloc_small(i64 noundef 32) #7
  %46 = icmp eq ptr %45, null
  br i1 %46, label %47, label %lean_alloc_closure.exit

47:                                               ; preds = %lean_inc.exit
  tail call void @lean_internal_panic_out_of_memory() #8
  unreachable

lean_alloc_closure.exit:                          ; preds = %lean_inc.exit
  %48 = getelementptr inbounds nuw i8, ptr %45, i64 4
  store i32 1, ptr %45, align 4, !tbaa !8
  store i32 -184549344, ptr %48, align 4
  %49 = getelementptr inbounds nuw i8, ptr %45, i64 8
  store ptr @l_Lean_PrettyPrinter_Delaborator_topDownAnalyze___lambda__1___boxed, ptr %49, align 8, !tbaa !11
  %50 = getelementptr inbounds nuw i8, ptr %45, i64 16
  store i16 7, ptr %50, align 8, !tbaa !15
  %51 = getelementptr inbounds nuw i8, ptr %45, i64 18
  store i16 1, ptr %51, align 2, !tbaa !15
  %52 = getelementptr inbounds nuw i8, ptr %45, i64 24
  store ptr %0, ptr %52, align 8, !tbaa !11
  %53 = load ptr, ptr @l_Lean_PrettyPrinter_Delaborator_topDownAnalyze___closed__1, align 8, !tbaa !11
  tail call void @lean_inc_heartbeat() #7
  %54 = tail call noalias ptr @mi_malloc_small(i64 noundef 48) #7
  %55 = icmp eq ptr %54, null
  br i1 %55, label %56, label %lean_alloc_closure.exit35

56:                                               ; preds = %lean_alloc_closure.exit
  tail call void @lean_internal_panic_out_of_memory() #8
  unreachable

lean_alloc_closure.exit35:                        ; preds = %lean_alloc_closure.exit
  %57 = getelementptr inbounds nuw i8, ptr %54, i64 4
  store i32 1, ptr %54, align 4, !tbaa !8
  store i32 -184549328, ptr %57, align 4
  %58 = getelementptr inbounds nuw i8, ptr %54, i64 8
  store ptr @l_Lean_PrettyPrinter_Delaborator_topDownAnalyze___lambda__3, ptr %58, align 8, !tbaa !11
  %59 = getelementptr inbounds nuw i8, ptr %54, i64 16
  store i16 8, ptr %59, align 8, !tbaa !15
  %60 = getelementptr inbounds nuw i8, ptr %54, i64 18
  store i16 3, ptr %60, align 2, !tbaa !15
  %61 = getelementptr inbounds nuw i8, ptr %54, i64 24
  store ptr %9, ptr %61, align 8, !tbaa !11
  %62 = getelementptr inbounds nuw i8, ptr %54, i64 32
  store ptr %0, ptr %62, align 8, !tbaa !11
  %63 = getelementptr inbounds nuw i8, ptr %54, i64 40
  store ptr %53, ptr %63, align 8, !tbaa !11
  %64 = load ptr, ptr @l_Lean_initFn____x40_Lean_PrettyPrinter_Delaborator_TopDownAnalyze___hyg_7____closed__3, align 8, !tbaa !11
  %65 = load ptr, ptr @l_Lean_addTrace___at_Lean_PrettyPrinter_Delaborator_TopDownAnalyze_annotateBoolAt___spec__2___closed__2, align 8, !tbaa !11
  %66 = tail call ptr @l_Lean_withTraceNode___at_Lean_PrettyPrinter_Delaborator_topDownAnalyze___spec__2(ptr noundef %64, ptr noundef nonnull %45, ptr noundef nonnull %54, i8 noundef zeroext 1, ptr noundef %65, ptr noundef %1, ptr noundef %2, ptr noundef %3, ptr noundef %4, ptr noundef %19)
  ret ptr %66
}